target datalayout = "e-m:e-p270:32:32-p271:32:32-p272:64:64-i64:64-i128:128-f80:128-n8:16:32:64-S128"
target triple = "x86_64-pc-linux-gnu"

%struct.Font = type { i32, i32, i32, %struct.Texture, ptr, ptr }
%struct.Texture = type { i32, i32, i32, i32, i32 }
%struct.Image = type { ptr, i32, i32, i32, i32 }
%struct.GlyphInfo = type { i32, i32, i32, i32, %struct.Image }

; Function Attrs: nounwind uwtable
define zeroext i1 @IsFontValid(ptr noundef byval(%struct.Font) align 8 %0) #0 {
  %2 = getelementptr inbounds nuw %struct.Font, ptr %0, i32 0, i32 0
  %3 = load i32, ptr %2, align 8
  %4 = icmp sgt i32 %3, 0
  br i1 %4, label %5, label %17

5:                                                ; preds = %1
  %6 = getelementptr inbounds nuw %struct.Font, ptr %0, i32 0, i32 1
  %7 = load i32, ptr %6, align 4
  %8 = icmp sgt i32 %7, 0
  br i1 %8, label %9, label %17

9:                                                ; preds = %5
  %10 = getelementptr inbounds nuw %struct.Font, ptr %0, i32 0, i32 4
  %11 = load ptr, ptr %10, align 8
  %12 = icmp ne ptr %11, null
  br i1 %12, label %13, label %17

13:                                               ; preds = %9
  %14 = getelementptr inbounds nuw %struct.Font, ptr %0, i32 0, i32 5
  %15 = load ptr, ptr %14, align 8
  %16 = icmp ne ptr %15, null
  br label %17

17:                                               ; preds = %13, %9, %5, %1
  %18 = phi i1 [ false, %9 ], [ false, %5 ], [ false, %1 ], [ %16, %13 ]
  ret i1 %18
}

; Function Attrs: nounwind uwtable
define i32 @GetGlyphIndex(ptr noundef byval(%struct.Font) align 8 %0, i32 noundef %1) #0 {
  %3 = alloca i32, align 4
  %4 = alloca i32, align 4
  %5 = alloca i32, align 4
  %6 = alloca i32, align 4
  %7 = alloca i32, align 4
  %8 = alloca i32, align 4
  store i32 %1, ptr %4, align 4
  call void @llvm.lifetime.start.p0(i64 4, ptr %5) #13
  store i32 0, ptr %5, align 4
  %9 = call zeroext i1 @IsFontValid(ptr noundef byval(%struct.Font) align 8 %0)
  br i1 %9, label %12, label %10

10:                                               ; preds = %2
  %11 = load i32, ptr %5, align 4
  store i32 %11, ptr %3, align 4
  store i32 1, ptr %6, align 4
  br label %62

12:                                               ; preds = %2
  call void @llvm.lifetime.start.p0(i64 4, ptr %7) #13
  store i32 0, ptr %7, align 4
  call void @llvm.lifetime.start.p0(i64 4, ptr %8) #13
  store i32 0, ptr %8, align 4
  br label %13

13:                                               ; preds = %43, %12
  %14 = load i32, ptr %8, align 4
  %15 = getelementptr inbounds nuw %struct.Font, ptr %0, i32 0, i32 1
  %16 = load i32, ptr %15, align 4
  %17 = icmp slt i32 %14, %16
  br i1 %17, label %19, label %18

18:                                               ; preds = %13
  store i32 2, ptr %6, align 4
  br label %46

19:                                               ; preds = %13
  %20 = getelementptr inbounds nuw %struct.Font, ptr %0, i32 0, i32 5
  %21 = load ptr, ptr %20, align 8
  %22 = load i32, ptr %8, align 4
  %23 = sext i32 %22 to i64
  %24 = getelementptr inbounds %struct.GlyphInfo, ptr %21, i64 %23
  %25 = getelementptr inbounds nuw %struct.GlyphInfo, ptr %24, i32 0, i32 0
  %26 = load i32, ptr %25, align 8
  %27 = icmp eq i32 %26, 63
  br i1 %27, label %28, label %30

28:                                               ; preds = %19
  %29 = load i32, ptr %8, align 4
  store i32 %29, ptr %7, align 4
  br label %30

30:                                               ; preds = %28, %19
  %31 = getelementptr inbounds nuw %struct.Font, ptr %0, i32 0, i32 5
  %32 = load ptr, ptr %31, align 8
  %33 = load i32, ptr %8, align 4
  %34 = sext i32 %33 to i64
  %35 = getelementptr inbounds %struct.GlyphInfo, ptr %32, i64 %34
  %36 = getelementptr inbounds nuw %struct.GlyphInfo, ptr %35, i32 0, i32 0
  %37 = load i32, ptr %36, align 8
  %38 = load i32, ptr %4, align 4
  %39 = icmp eq i32 %37, %38
  br i1 %39, label %40, label %42

40:                                               ; preds = %30
  %41 = load i32, ptr %8, align 4
  store i32 %41, ptr %5, align 4
  store i32 2, ptr %6, align 4
  br label %46

42:                                               ; preds = %30
  br label %43

43:                                               ; preds = %42
  %44 = load i32, ptr %8, align 4
  %45 = add nsw i32 %44, 1
  store i32 %45, ptr %8, align 4
  br label %13

46:                                               ; preds = %40, %18
  call void @llvm.lifetime.end.p0(i64 4, ptr %8) #13
  br label %47

47:                                               ; preds = %46
  %48 = load i32, ptr %5, align 4
  %49 = icmp eq i32 %48, 0
  br i1 %49, label %50, label %60

50:                                               ; preds = %47
  %51 = getelementptr inbounds nuw %struct.Font, ptr %0, i32 0, i32 5
  %52 = load ptr, ptr %51, align 8
  %53 = getelementptr inbounds %struct.GlyphInfo, ptr %52, i64 0
  %54 = getelementptr inbounds nuw %struct.GlyphInfo, ptr %53, i32 0, i32 0
  %55 = load i32, ptr %54, align 8
  %56 = load i32, ptr %4, align 4
  %57 = icmp ne i32 %55, %56
  br i1 %57, label %58, label %60

58:                                               ; preds = %50
  %59 = load i32, ptr %7, align 4
  store i32 %59, ptr %5, align 4
  br label %60

60:                                               ; preds = %58, %50, %47
  %61 = load i32, ptr %5, align 4
  store i32 %61, ptr %3, align 4
  store i32 1, ptr %6, align 4
  call void @llvm.lifetime.end.p0(i64 4, ptr %7) #13
  br label %62

62:                                               ; preds = %60, %10
  call void @llvm.lifetime.end.p0(i64 4, ptr %5) #13
  %63 = load i32, ptr %3, align 4
  ret i32 %63
}

; Function Attrs: nounwind uwtable
define void @GetGlyphInfo(ptr dead_on_unwind noalias writable sret(%struct.GlyphInfo) align 8 %0, ptr noundef byval(%struct.Font) align 8 %1, i32 noundef %2) #0 {
  %4 = alloca i32, align 4
  store i32 %2, ptr %4, align 4
  call void @llvm.memset.p0.i64(ptr align 8 %0, i8 0, i64 40, i1 false)
  %5 = getelementptr inbounds nuw %struct.Font, ptr %1, i32 0, i32 5
  %6 = load ptr, ptr %5, align 8
  %7 = load i32, ptr %4, align 4
  %8 = call i32 @GetGlyphIndex(ptr noundef byval(%struct.Font) align 8 %1, i32 noundef %7)
  %9 = sext i32 %8 to i64
  %10 = getelementptr inbounds %struct.GlyphInfo, ptr %6, i64 %9
  call void @llvm.memcpy.p0.p0.i64(ptr align 8 %0, ptr align 8 %10, i64 40, i1 false)
  ret void
}