; Function Attrs: nofree norecurse nosync nounwind memory(readwrite, inaccessiblemem: none) uwtable
define void @GetGlyphInfo(ptr dead_on_unwind noalias writable writeonly sret(%struct.GlyphInfo) align 8 captures(none) %0, ptr noundef readonly byval(%struct.Font) align 8 captures(none) %1, i32 noundef %2) local_unnamed_addr #25 {
  %4 = getelementptr inbounds nuw i8, ptr %1, i64 40
  %5 = load ptr, ptr %4, align 8
  %6 = load i32, ptr %1, align 8
  %7 = icmp sgt i32 %6, 0
  %8 = getelementptr inbounds nuw i8, ptr %1, i64 4
  %9 = load i32, ptr %8, align 4
  %10 = icmp sgt i32 %9, 0
  %or.cond.i.i = select i1 %7, i1 %10, i1 false
  %11 = getelementptr inbounds nuw i8, ptr %1, i64 32
  %12 = load ptr, ptr %11, align 8
  %13 = icmp ne ptr %12, null
  %or.cond5.i.i = select i1 %or.cond.i.i, i1 %13, i1 false
  %14 = icmp ne ptr %5, null
  %or.cond.i = select i1 %or.cond5.i.i, i1 %14, i1 false
  br i1 %or.cond.i, label %.preheader.i, label %GetGlyphIndex.exit

.preheader.i:                                     ; preds = %3
  %wide.trip.count.i = zext nneg i32 %9 to i64
  br label %15

15:                                               ; preds = %21, %.preheader.i
  %indvars.iv.i = phi i64 [ 0, %.preheader.i ], [ %indvars.iv.next.i, %21 ]
  %.01325.i = phi i32 [ 0, %.preheader.i ], [ %spec.select.i, %21 ]
  %16 = getelementptr inbounds nuw %struct.GlyphInfo, ptr %5, i64 %indvars.iv.i
  %17 = load i32, ptr %16, align 8
  %18 = icmp eq i32 %17, 63
  %19 = trunc nuw nsw i64 %indvars.iv.i to i32
  %spec.select.i = select i1 %18, i32 %19, i32 %.01325.i
  %20 = icmp eq i32 %17, %2
  br i1 %20, label %22, label %21

21:                                               ; preds = %15
  %indvars.iv.next.i = add nuw nsw i64 %indvars.iv.i, 1
  %exitcond.not.i = icmp eq i64 %indvars.iv.next.i, %wide.trip.count.i
  br i1 %exitcond.not.i, label %.thread.i, label %15

22:                                               ; preds = %15
  %23 = icmp eq i64 %indvars.iv.i, 0
  br i1 %23, label %.thread.i, label %GetGlyphIndex.exit

.thread.i:                                        ; preds = %21, %22
  %24 = load i32, ptr %5, align 8
  %.not.i = icmp eq i32 %24, %2
  %spec.select17.i = select i1 %.not.i, i32 0, i32 %spec.select.i
  br label %GetGlyphIndex.exit

GetGlyphIndex.exit:                               ; preds = %3, %22, %.thread.i
  %.016.i = phi i32 [ %19, %22 ], [ %spec.select17.i, %.thread.i ], [ 0, %3 ]
  %25 = sext i32 %.016.i to i64
  %26 = getelementptr inbounds %struct.GlyphInfo, ptr %5, i64 %25
  tail call void @llvm.memcpy.p0.p0.i64(ptr noundef nonnull align 8 dereferenceable(40) %0, ptr noundef nonnull align 8 dereferenceable(40) %26, i64 40, i1 false)
  ret void
}